target datalayout = "e-m:e-p270:32:32-p271:32:32-p272:64:64-i64:64-i128:128-f80:128-n8:16:32:64-S128"
target triple = "x86_64-pc-linux-gnu"

%"class.ZXing::BitMatrix" = type { i32, i32, %"class.std::vector" }
%"class.std::vector" = type { %"struct.std::_Vector_base" }
%"struct.std::_Vector_base" = type { %"struct.std::_Vector_base<unsigned char, std::allocator<unsigned char>>::_Vector_impl" }
%"struct.std::_Vector_base<unsigned char, std::allocator<unsigned char>>::_Vector_impl" = type { %"struct.std::_Vector_base<unsigned char, std::allocator<unsigned char>>::_Vector_impl_data" }
%"struct.std::_Vector_base<unsigned char, std::allocator<unsigned char>>::_Vector_impl_data" = type { ptr, ptr, ptr }
%"class.ZXing::OneD::EAN13Writer" = type { i32 }
%"class.std::__cxx11::basic_string" = type { %"struct.std::__cxx11::basic_string<wchar_t>::_Alloc_hider", i64, %union.anon }
%"struct.std::__cxx11::basic_string<wchar_t>::_Alloc_hider" = type { ptr }
%union.anon = type { i64, [8 x i8] }
%"class.ZXing::OneD::UPCAWriter" = type { i32 }

@.str = private unnamed_addr constant [50 x i8] c"Requested contents should be 11 or 12 digits long\00", align 1
@_ZTISt16invalid_argument = external constant ptr

; Function Attrs: mustprogress nounwind uwtable
define linkonce_odr noundef nonnull align 4 dereferenceable(4) ptr @_ZN5ZXing4OneD11EAN13Writer9setMarginEi(ptr noundef nonnull align 4 dereferenceable(4) %0, i32 noundef %1) #4 comdat align 2 {
  %3 = alloca ptr, align 8
  %4 = alloca i32, align 4
  store ptr %0, ptr %3, align 8
  store i32 %1, ptr %4, align 4
  %5 = load ptr, ptr %3, align 8
  %6 = load i32, ptr %4, align 4
  %7 = getelementptr inbounds %"class.ZXing::OneD::EAN13Writer", ptr %5, i32 0, i32 0
  store i32 %6, ptr %7, align 4
  ret ptr %5
}

; Function Attrs: mustprogress nounwind uwtable
define linkonce_odr void @_ZN5ZXing4OneD11EAN13WriterC2Ev(ptr noundef nonnull align 4 dereferenceable(4) %0) unnamed_addr #4 comdat align 2 {
  %2 = alloca ptr, align 8
  store ptr %0, ptr %2, align 8
  %3 = load ptr, ptr %2, align 8
  %4 = getelementptr inbounds %"class.ZXing::OneD::EAN13Writer", ptr %3, i32 0, i32 0
  store i32 -1, ptr %4, align 4
  ret void
}

; Function Attrs: mustprogress uwtable
define void @_ZNK5ZXing4OneD10UPCAWriter6encodeERKNSt7__cxx1112basic_stringIwSt11char_traitsIwESaIwEEEii(ptr dead_on_unwind noalias writable sret(%"class.ZXing::BitMatrix") align 8 %0, ptr noundef nonnull align 4 dereferenceable(4) %1, ptr noundef nonnull align 8 dereferenceable(32) %2, i32 noundef %3, i32 noundef %4) #0 align 2 personality ptr @__gxx_personality_v0 {
  %6 = alloca ptr, align 8
  %7 = alloca ptr, align 8
  %8 = alloca ptr, align 8
  %9 = alloca i32, align 4
  %10 = alloca i32, align 4
  %11 = alloca i64, align 8
  %12 = alloca ptr, align 8
  %13 = alloca i32, align 4
  %14 = alloca %"class.ZXing::OneD::EAN13Writer", align 4
  %15 = alloca %"class.std::__cxx11::basic_string", align 8
  store ptr %0, ptr %6, align 8
  store ptr %1, ptr %7, align 8
  store ptr %2, ptr %8, align 8
  store i32 %3, ptr %9, align 4
  store i32 %4, ptr %10, align 4
  %16 = load ptr, ptr %7, align 8
  %17 = load ptr, ptr %8, align 8
  %18 = call noundef i64 @_ZNKSt7__cxx1112basic_stringIwSt11char_traitsIwESaIwEE6lengthEv(ptr noundef nonnull align 8 dereferenceable(32) %17) #5
  store i64 %18, ptr %11, align 8
  %19 = load i64, ptr %11, align 8
  %20 = icmp ne i64 %19, 11
  br i1 %20, label %21, label %31

21:                                               ; preds = %5
  %22 = load i64, ptr %11, align 8
  %23 = icmp ne i64 %22, 12
  br i1 %23, label %24, label %31

24:                                               ; preds = %21
  %25 = call ptr @__cxa_allocate_exception(i64 16) #5
  invoke void @_ZNSt16invalid_argumentC1EPKc(ptr noundef nonnull align 8 dereferenceable(16) %25, ptr noundef @.str)
          to label %26 unwind label %27

26:                                               ; preds = %24
  call void @__cxa_throw(ptr %25, ptr @_ZTISt16invalid_argument, ptr @_ZNSt16invalid_argumentD1Ev) #6
  unreachable

27:                                               ; preds = %24
  %28 = landingpad { ptr, i32 }
          cleanup
  %29 = extractvalue { ptr, i32 } %28, 0
  store ptr %29, ptr %12, align 8
  %30 = extractvalue { ptr, i32 } %28, 1
  store i32 %30, ptr %13, align 4
  call void @__cxa_free_exception(ptr %25) #5
  br label %43

31:                                               ; preds = %21, %5
  call void @llvm.memset.p0.i64(ptr align 4 %14, i8 0, i64 4, i1 false)
  call void @_ZN5ZXing4OneD11EAN13WriterC2Ev(ptr noundef nonnull align 4 dereferenceable(4) %14) #5
  %32 = getelementptr inbounds %"class.ZXing::OneD::UPCAWriter", ptr %16, i32 0, i32 0
  %33 = load i32, ptr %32, align 4
  %34 = call noundef nonnull align 4 dereferenceable(4) ptr @_ZN5ZXing4OneD11EAN13Writer9setMarginEi(ptr noundef nonnull align 4 dereferenceable(4) %14, i32 noundef %33)
  %35 = load ptr, ptr %8, align 8
  call void @_ZStplIwSt11char_traitsIwESaIwEENSt7__cxx1112basic_stringIT_T0_T1_EES5_RKS8_(ptr dead_on_unwind writable sret(%"class.std::__cxx11::basic_string") align 8 %15, i32 noundef signext 48, ptr noundef nonnull align 8 dereferenceable(32) %35)
  %36 = load i32, ptr %9, align 4
  %37 = load i32, ptr %10, align 4
  invoke void @_ZNK5ZXing4OneD11EAN13Writer6encodeERKNSt7__cxx1112basic_stringIwSt11char_traitsIwESaIwEEEii(ptr dead_on_unwind writable sret(%"class.ZXing::BitMatrix") align 8 %0, ptr noundef nonnull align 4 dereferenceable(4) %34, ptr noundef nonnull align 8 dereferenceable(32) %15, i32 noundef %36, i32 noundef %37)
          to label %38 unwind label %39

38:                                               ; preds = %31
  call void @_ZNSt7__cxx1112basic_stringIwSt11char_traitsIwESaIwEED1Ev(ptr noundef nonnull align 8 dereferenceable(32) %15) #5
  ret void

39:                                               ; preds = %31
  %40 = landingpad { ptr, i32 }
          cleanup
  %41 = extractvalue { ptr, i32 } %40, 0
  store ptr %41, ptr %12, align 8
  %42 = extractvalue { ptr, i32 } %40, 1
  store i32 %42, ptr %13, align 4
  call void @_ZNSt7__cxx1112basic_stringIwSt11char_traitsIwESaIwEED1Ev(ptr noundef nonnull align 8 dereferenceable(32) %15) #5
  br label %43

43:                                               ; preds = %39, %27
  %44 = load ptr, ptr %12, align 8
  %45 = load i32, ptr %13, align 4
  %46 = insertvalue { ptr, i32 } poison, ptr %44, 0
  %47 = insertvalue { ptr, i32 } %46, i32 %45, 1
  resume { ptr, i32 } %47
}