; Function Attrs: mustprogress uwtable
define void @_ZNK5ZXing4OneD10UPCAWriter6encodeERKNSt7__cxx1112basic_stringIwSt11char_traitsIwESaIwEEEii(ptr dead_on_unwind noalias writable sret(%"class.ZXing::BitMatrix") align 8 %0, ptr nocapture noundef nonnull readonly align 4 dereferenceable(4) %1, ptr noundef nonnull align 8 dereferenceable(32) %2, i32 noundef %3, i32 noundef %4) local_unnamed_addr #0 align 2 personality ptr @__gxx_personality_v0 {
  %6 = alloca %"class.ZXing::OneD::EAN13Writer", align 4
  %7 = alloca %"class.std::__cxx11::basic_string", align 8
  %8 = tail call noundef i64 @_ZNKSt7__cxx1112basic_stringIwSt11char_traitsIwESaIwEE6lengthEv(ptr noundef nonnull align 8 dereferenceable(32) %2) #3
  %9 = add i64 %8, -13
  %or.cond = icmp ult i64 %9, -2
  br i1 %or.cond, label %10, label %15

10:                                               ; preds = %5
  %11 = tail call ptr @__cxa_allocate_exception(i64 16) #3
  invoke void @_ZNSt16invalid_argumentC1EPKc(ptr noundef nonnull align 8 dereferenceable(16) %11, ptr noundef nonnull @.str)
          to label %12 unwind label %13

12:                                               ; preds = %10
  tail call void @__cxa_throw(ptr nonnull %11, ptr nonnull @_ZTISt16invalid_argument, ptr nonnull @_ZNSt16invalid_argumentD1Ev) #4
  unreachable

13:                                               ; preds = %10
  %14 = landingpad { ptr, i32 }
          cleanup
  tail call void @__cxa_free_exception(ptr %11) #3
  br label %20

15:                                               ; preds = %5
  %16 = load i32, ptr %1, align 4
  store i32 %16, ptr %6, align 4
  call void @_ZStplIwSt11char_traitsIwESaIwEENSt7__cxx1112basic_stringIT_T0_T1_EES5_RKS8_(ptr dead_on_unwind nonnull writable sret(%"class.std::__cxx11::basic_string") align 8 %7, i32 noundef signext 48, ptr noundef nonnull align 8 dereferenceable(32) %2)
  invoke void @_ZNK5ZXing4OneD11EAN13Writer6encodeERKNSt7__cxx1112basic_stringIwSt11char_traitsIwESaIwEEEii(ptr dead_on_unwind writable sret(%"class.ZXing::BitMatrix") align 8 %0, ptr noundef nonnull align 4 dereferenceable(4) %6, ptr noundef nonnull align 8 dereferenceable(32) %7, i32 noundef %3, i32 noundef %4)
          to label %17 unwind label %18

17:                                               ; preds = %15
  call void @_ZNSt7__cxx1112basic_stringIwSt11char_traitsIwESaIwEED1Ev(ptr noundef nonnull align 8 dereferenceable(32) %7) #3
  ret void

18:                                               ; preds = %15
  %19 = landingpad { ptr, i32 }
          cleanup
  call void @_ZNSt7__cxx1112basic_stringIwSt11char_traitsIwESaIwEED1Ev(ptr noundef nonnull align 8 dereferenceable(32) %7) #3
  br label %20

20:                                               ; preds = %18, %13
  %.pn = phi { ptr, i32 } [ %14, %13 ], [ %19, %18 ]
  resume { ptr, i32 } %.pn
}